target datalayout = "e-m:e-p270:32:32-p271:32:32-p272:64:64-i64:64-i128:128-f80:128-n8:16:32:64-S128"
target triple = "x86_64-pc-linux-gnu"

; Function Attrs: nounwind uwtable
define dso_local i64 @Curl_bufq_pass(ptr noundef %0, ptr noundef %1, ptr noundef %2, ptr noundef %3) #0 {
  %5 = alloca ptr, align 8
  %6 = alloca ptr, align 8
  %7 = alloca ptr, align 8
  %8 = alloca ptr, align 8
  %9 = alloca ptr, align 8
  %10 = alloca i64, align 8
  %11 = alloca i64, align 8
  %12 = alloca i64, align 8
  store ptr %0, ptr %5, align 8
  store ptr %1, ptr %6, align 8
  store ptr %2, ptr %7, align 8
  store ptr %3, ptr %8, align 8
  store i64 0, ptr %11, align 8
  br label %13

13:                                               ; preds = %43, %4
  %14 = load ptr, ptr %5, align 8
  %15 = call zeroext i1 @Curl_bufq_peek(ptr noundef %14, ptr noundef %9, ptr noundef %10)
  br i1 %15, label %16, label %49

16:                                               ; preds = %13
  %17 = load ptr, ptr %6, align 8
  %18 = load ptr, ptr %7, align 8
  %19 = load ptr, ptr %9, align 8
  %20 = load i64, ptr %10, align 8
  %21 = load ptr, ptr %8, align 8
  %22 = call i64 %17(ptr noundef %18, ptr noundef %19, i64 noundef %20, ptr noundef %21)
  store i64 %22, ptr %12, align 8
  %23 = load i64, ptr %12, align 8
  %24 = icmp slt i64 %23, 0
  br i1 %24, label %25, label %34

25:                                               ; preds = %16
  %26 = load i64, ptr %11, align 8
  %27 = icmp ne i64 %26, 0
  br i1 %27, label %28, label %32

28:                                               ; preds = %25
  %29 = load ptr, ptr %8, align 8
  %30 = load i32, ptr %29, align 4
  %31 = icmp ne i32 %30, 81
  br i1 %31, label %32, label %33

32:                                               ; preds = %28, %25
  store i64 -1, ptr %11, align 8
  br label %33

33:                                               ; preds = %32, %28
  br label %49

34:                                               ; preds = %16
  %35 = load i64, ptr %12, align 8
  %36 = icmp ne i64 %35, 0
  br i1 %36, label %43, label %37

37:                                               ; preds = %34
  %38 = load i64, ptr %11, align 8
  %39 = icmp ne i64 %38, 0
  br i1 %39, label %42, label %40

40:                                               ; preds = %37
  %41 = load ptr, ptr %8, align 8
  store i32 81, ptr %41, align 4
  store i64 -1, ptr %11, align 8
  br label %42

42:                                               ; preds = %40, %37
  br label %49

43:                                               ; preds = %34
  %44 = load ptr, ptr %5, align 8
  %45 = load i64, ptr %12, align 8
  call void @Curl_bufq_skip(ptr noundef %44, i64 noundef %45)
  %46 = load i64, ptr %12, align 8
  %47 = load i64, ptr %11, align 8
  %48 = add nsw i64 %47, %46
  store i64 %48, ptr %11, align 8
  br label %13, !llvm.loop !15

49:                                               ; preds = %42, %33, %13
  %50 = load i64, ptr %11, align 8
  ret i64 %50
}