; Function Attrs: nounwind uwtable
define dso_local range(i64 -1, -9223372036854775808) i64 @Curl_bufq_pass(ptr noundef captures(none) %0, ptr noundef readonly captures(none) %1, ptr noundef %2, ptr noundef %3) local_unnamed_addr #2 {
  %5 = alloca ptr, align 8
  %6 = alloca i64, align 8
  %7 = call zeroext i1 @Curl_bufq_peek(ptr noundef %0, ptr noundef nonnull %5, ptr noundef nonnull %6)
  br i1 %7, label %.lr.ph, label %.loopexit

.lr.ph:                                           ; preds = %4, %19
  %.020 = phi i64 [ %20, %19 ], [ 0, %4 ]
  %8 = load ptr, ptr %5, align 8
  %9 = load i64, ptr %6, align 8
  %10 = tail call i64 %1(ptr noundef %2, ptr noundef %8, i64 noundef %9, ptr noundef %3) #11
  %11 = icmp slt i64 %10, 0
  br i1 %11, label %12, label %16

12:                                               ; preds = %.lr.ph
  %.not16 = icmp eq i64 %.020, 0
  br i1 %.not16, label %15, label %13

13:                                               ; preds = %12
  %14 = load i32, ptr %3, align 4
  %.not17 = icmp eq i32 %14, 81
  br i1 %.not17, label %.loopexit, label %15

15:                                               ; preds = %13, %12
  br label %.loopexit

16:                                               ; preds = %.lr.ph
  %.not = icmp eq i64 %10, 0
  br i1 %.not, label %17, label %19

17:                                               ; preds = %16
  %.not15 = icmp eq i64 %.020, 0
  br i1 %.not15, label %18, label %.loopexit

18:                                               ; preds = %17
  store i32 81, ptr %3, align 4
  br label %.loopexit

19:                                               ; preds = %16
  tail call void @Curl_bufq_skip(ptr noundef %0, i64 noundef %10)
  %20 = add nuw nsw i64 %10, %.020
  %21 = call zeroext i1 @Curl_bufq_peek(ptr noundef %0, ptr noundef nonnull %5, ptr noundef nonnull %6)
  br i1 %21, label %.lr.ph, label %.loopexit, !llvm.loop !15

.loopexit:                                        ; preds = %19, %4, %17, %18, %13, %15
  %.1 = phi i64 [ -1, %15 ], [ %.020, %13 ], [ %.020, %17 ], [ -1, %18 ], [ 0, %4 ], [ %20, %19 ]
  ret i64 %.1
}